target datalayout = "e-m:e-p270:32:32-p271:32:32-p272:64:64-i64:64-i128:128-f80:128-n8:16:32:64-S128"
target triple = "x86_64-pc-linux-gnu"

@l___private_Lean_Meta_Tactic_Grind_Internalize_0__Lean_Meta_Grind_forbiddenSplitTypes___closed__2 = internal global ptr null, align 8
@l___private_Lean_Meta_Tactic_Grind_Internalize_0__Lean_Meta_Grind_forbiddenSplitTypes___closed__4 = internal global ptr null, align 8
@l___private_Lean_Meta_Tactic_Grind_Internalize_0__Lean_Meta_Grind_extParentsToIgnore___closed__2 = internal global ptr null, align 8
@l___private_Lean_Meta_Tactic_Grind_Internalize_0__Lean_Meta_Grind_extParentsToIgnore___closed__4 = internal global ptr null, align 8
@l___private_Lean_Meta_Tactic_Grind_Internalize_0__Lean_Meta_Grind_extParentsToIgnore___closed__6 = internal global ptr null, align 8
@l___private_Lean_Meta_Tactic_Grind_Internalize_0__Lean_Meta_Grind_extParentsToIgnore___closed__8 = internal global ptr null, align 8

; Function Attrs: nounwind uwtable
define zeroext i8 @l___private_Lean_Meta_Tactic_Grind_Internalize_0__Lean_Meta_Grind_extParentsToIgnore(ptr noundef %0) #2 {
  %2 = alloca i8, align 1
  %3 = alloca ptr, align 8
  %4 = alloca ptr, align 8
  %5 = alloca i8, align 1
  %6 = alloca ptr, align 8
  %7 = alloca i8, align 1
  %8 = alloca ptr, align 8
  %9 = alloca i8, align 1
  %10 = alloca ptr, align 8
  %11 = alloca i8, align 1
  %12 = alloca ptr, align 8
  %13 = alloca i8, align 1
  %14 = alloca ptr, align 8
  %15 = alloca i8, align 1
  %16 = alloca i32, align 4
  %17 = alloca i8, align 1
  %18 = alloca i8, align 1
  %19 = alloca i8, align 1
  %20 = alloca i8, align 1
  %21 = alloca i8, align 1
  store ptr %0, ptr %3, align 8, !tbaa !8
  br label %22

22:                                               ; preds = %1
  call void @llvm.lifetime.start.p0(i64 8, ptr %4) #7
  call void @llvm.lifetime.start.p0(i64 1, ptr %5) #7
  %23 = load ptr, ptr @l___private_Lean_Meta_Tactic_Grind_Internalize_0__Lean_Meta_Grind_forbiddenSplitTypes___closed__2, align 8, !tbaa !8
  store ptr %23, ptr %4, align 8, !tbaa !8
  %24 = load ptr, ptr %3, align 8, !tbaa !8
  %25 = load ptr, ptr %4, align 8, !tbaa !8
  %26 = call zeroext i8 @lean_name_eq(ptr noundef %24, ptr noundef %25)
  store i8 %26, ptr %5, align 1, !tbaa !12
  %27 = load i8, ptr %5, align 1, !tbaa !12
  %28 = zext i8 %27 to i32
  %29 = icmp eq i32 %28, 0
  br i1 %29, label %30, label %80

30:                                               ; preds = %22
  call void @llvm.lifetime.start.p0(i64 8, ptr %6) #7
  call void @llvm.lifetime.start.p0(i64 1, ptr %7) #7
  %31 = load ptr, ptr @l___private_Lean_Meta_Tactic_Grind_Internalize_0__Lean_Meta_Grind_forbiddenSplitTypes___closed__4, align 8, !tbaa !8
  store ptr %31, ptr %6, align 8, !tbaa !8
  %32 = load ptr, ptr %3, align 8, !tbaa !8
  %33 = load ptr, ptr %6, align 8, !tbaa !8
  %34 = call zeroext i8 @lean_name_eq(ptr noundef %32, ptr noundef %33)
  store i8 %34, ptr %7, align 1, !tbaa !12
  %35 = load i8, ptr %7, align 1, !tbaa !12
  %36 = zext i8 %35 to i32
  %37 = icmp eq i32 %36, 0
  br i1 %37, label %38, label %77

38:                                               ; preds = %30
  call void @llvm.lifetime.start.p0(i64 8, ptr %8) #7
  call void @llvm.lifetime.start.p0(i64 1, ptr %9) #7
  %39 = load ptr, ptr @l___private_Lean_Meta_Tactic_Grind_Internalize_0__Lean_Meta_Grind_extParentsToIgnore___closed__2, align 8, !tbaa !8
  store ptr %39, ptr %8, align 8, !tbaa !8
  %40 = load ptr, ptr %3, align 8, !tbaa !8
  %41 = load ptr, ptr %8, align 8, !tbaa !8
  %42 = call zeroext i8 @lean_name_eq(ptr noundef %40, ptr noundef %41)
  store i8 %42, ptr %9, align 1, !tbaa !12
  %43 = load i8, ptr %9, align 1, !tbaa !12
  %44 = zext i8 %43 to i32
  %45 = icmp eq i32 %44, 0
  br i1 %45, label %46, label %74

46:                                               ; preds = %38
  call void @llvm.lifetime.start.p0(i64 8, ptr %10) #7
  call void @llvm.lifetime.start.p0(i64 1, ptr %11) #7
  %47 = load ptr, ptr @l___private_Lean_Meta_Tactic_Grind_Internalize_0__Lean_Meta_Grind_extParentsToIgnore___closed__4, align 8, !tbaa !8
  store ptr %47, ptr %10, align 8, !tbaa !8
  %48 = load ptr, ptr %3, align 8, !tbaa !8
  %49 = load ptr, ptr %10, align 8, !tbaa !8
  %50 = call zeroext i8 @lean_name_eq(ptr noundef %48, ptr noundef %49)
  store i8 %50, ptr %11, align 1, !tbaa !12
  %51 = load i8, ptr %11, align 1, !tbaa !12
  %52 = zext i8 %51 to i32
  %53 = icmp eq i32 %52, 0
  br i1 %53, label %54, label %71

54:                                               ; preds = %46
  call void @llvm.lifetime.start.p0(i64 8, ptr %12) #7
  call void @llvm.lifetime.start.p0(i64 1, ptr %13) #7
  %55 = load ptr, ptr @l___private_Lean_Meta_Tactic_Grind_Internalize_0__Lean_Meta_Grind_extParentsToIgnore___closed__6, align 8, !tbaa !8
  store ptr %55, ptr %12, align 8, !tbaa !8
  %56 = load ptr, ptr %3, align 8, !tbaa !8
  %57 = load ptr, ptr %12, align 8, !tbaa !8
  %58 = call zeroext i8 @lean_name_eq(ptr noundef %56, ptr noundef %57)
  store i8 %58, ptr %13, align 1, !tbaa !12
  %59 = load i8, ptr %13, align 1, !tbaa !12
  %60 = zext i8 %59 to i32
  %61 = icmp eq i32 %60, 0
  br i1 %61, label %62, label %68

62:                                               ; preds = %54
  call void @llvm.lifetime.start.p0(i64 8, ptr %14) #7
  call void @llvm.lifetime.start.p0(i64 1, ptr %15) #7
  %63 = load ptr, ptr @l___private_Lean_Meta_Tactic_Grind_Internalize_0__Lean_Meta_Grind_extParentsToIgnore___closed__8, align 8, !tbaa !8
  store ptr %63, ptr %14, align 8, !tbaa !8
  %64 = load ptr, ptr %3, align 8, !tbaa !8
  %65 = load ptr, ptr %14, align 8, !tbaa !8
  %66 = call zeroext i8 @lean_name_eq(ptr noundef %64, ptr noundef %65)
  store i8 %66, ptr %15, align 1, !tbaa !12
  %67 = load i8, ptr %15, align 1, !tbaa !12
  store i8 %67, ptr %2, align 1
  store i32 1, ptr %16, align 4
  call void @llvm.lifetime.end.p0(i64 1, ptr %15) #7
  call void @llvm.lifetime.end.p0(i64 8, ptr %14) #7
  br label %70

68:                                               ; preds = %54
  call void @llvm.lifetime.start.p0(i64 1, ptr %17) #7
  store i8 1, ptr %17, align 1, !tbaa !12
  %69 = load i8, ptr %17, align 1, !tbaa !12
  store i8 %69, ptr %2, align 1
  store i32 1, ptr %16, align 4
  call void @llvm.lifetime.end.p0(i64 1, ptr %17) #7
  br label %70

70:                                               ; preds = %68, %62
  call void @llvm.lifetime.end.p0(i64 1, ptr %13) #7
  call void @llvm.lifetime.end.p0(i64 8, ptr %12) #7
  br label %73

71:                                               ; preds = %46
  call void @llvm.lifetime.start.p0(i64 1, ptr %18) #7
  store i8 1, ptr %18, align 1, !tbaa !12
  %72 = load i8, ptr %18, align 1, !tbaa !12
  store i8 %72, ptr %2, align 1
  store i32 1, ptr %16, align 4
  call void @llvm.lifetime.end.p0(i64 1, ptr %18) #7
  br label %73

73:                                               ; preds = %71, %70
  call void @llvm.lifetime.end.p0(i64 1, ptr %11) #7
  call void @llvm.lifetime.end.p0(i64 8, ptr %10) #7
  br label %76

74:                                               ; preds = %38
  call void @llvm.lifetime.start.p0(i64 1, ptr %19) #7
  store i8 1, ptr %19, align 1, !tbaa !12
  %75 = load i8, ptr %19, align 1, !tbaa !12
  store i8 %75, ptr %2, align 1
  store i32 1, ptr %16, align 4
  call void @llvm.lifetime.end.p0(i64 1, ptr %19) #7
  br label %76

76:                                               ; preds = %74, %73
  call void @llvm.lifetime.end.p0(i64 1, ptr %9) #7
  call void @llvm.lifetime.end.p0(i64 8, ptr %8) #7
  br label %79

77:                                               ; preds = %30
  call void @llvm.lifetime.start.p0(i64 1, ptr %20) #7
  store i8 1, ptr %20, align 1, !tbaa !12
  %78 = load i8, ptr %20, align 1, !tbaa !12
  store i8 %78, ptr %2, align 1
  store i32 1, ptr %16, align 4
  call void @llvm.lifetime.end.p0(i64 1, ptr %20) #7
  br label %79

79:                                               ; preds = %77, %76
  call void @llvm.lifetime.end.p0(i64 1, ptr %7) #7
  call void @llvm.lifetime.end.p0(i64 8, ptr %6) #7
  br label %82

80:                                               ; preds = %22
  call void @llvm.lifetime.start.p0(i64 1, ptr %21) #7
  store i8 1, ptr %21, align 1, !tbaa !12
  %81 = load i8, ptr %21, align 1, !tbaa !12
  store i8 %81, ptr %2, align 1
  store i32 1, ptr %16, align 4
  call void @llvm.lifetime.end.p0(i64 1, ptr %21) #7
  br label %82

82:                                               ; preds = %80, %79
  call void @llvm.lifetime.end.p0(i64 1, ptr %5) #7
  call void @llvm.lifetime.end.p0(i64 8, ptr %4) #7
  %83 = load i8, ptr %2, align 1
  ret i8 %83
}