; Function Attrs: nounwind uwtable
define zeroext i8 @l___private_Lean_Meta_Tactic_Grind_Internalize_0__Lean_Meta_Grind_extParentsToIgnore(ptr noundef %0) local_unnamed_addr #1 {
  %2 = load ptr, ptr @l___private_Lean_Meta_Tactic_Grind_Internalize_0__Lean_Meta_Grind_forbiddenSplitTypes___closed__2, align 8, !tbaa !9
  %3 = tail call zeroext i8 @lean_name_eq(ptr noundef %0, ptr noundef %2) #4
  %4 = icmp eq i8 %3, 0
  br i1 %4, label %5, label %24

5:                                                ; preds = %1
  %6 = load ptr, ptr @l___private_Lean_Meta_Tactic_Grind_Internalize_0__Lean_Meta_Grind_forbiddenSplitTypes___closed__4, align 8, !tbaa !9
  %7 = tail call zeroext i8 @lean_name_eq(ptr noundef %0, ptr noundef %6) #4
  %8 = icmp eq i8 %7, 0
  br i1 %8, label %9, label %24

9:                                                ; preds = %5
  %10 = load ptr, ptr @l___private_Lean_Meta_Tactic_Grind_Internalize_0__Lean_Meta_Grind_extParentsToIgnore___closed__2, align 8, !tbaa !9
  %11 = tail call zeroext i8 @lean_name_eq(ptr noundef %0, ptr noundef %10) #4
  %12 = icmp eq i8 %11, 0
  br i1 %12, label %13, label %24

13:                                               ; preds = %9
  %14 = load ptr, ptr @l___private_Lean_Meta_Tactic_Grind_Internalize_0__Lean_Meta_Grind_extParentsToIgnore___closed__4, align 8, !tbaa !9
  %15 = tail call zeroext i8 @lean_name_eq(ptr noundef %0, ptr noundef %14) #4
  %16 = icmp eq i8 %15, 0
  br i1 %16, label %17, label %24

17:                                               ; preds = %13
  %18 = load ptr, ptr @l___private_Lean_Meta_Tactic_Grind_Internalize_0__Lean_Meta_Grind_extParentsToIgnore___closed__6, align 8, !tbaa !9
  %19 = tail call zeroext i8 @lean_name_eq(ptr noundef %0, ptr noundef %18) #4
  %20 = icmp eq i8 %19, 0
  br i1 %20, label %21, label %24

21:                                               ; preds = %17
  %22 = load ptr, ptr @l___private_Lean_Meta_Tactic_Grind_Internalize_0__Lean_Meta_Grind_extParentsToIgnore___closed__8, align 8, !tbaa !9
  %23 = tail call zeroext i8 @lean_name_eq(ptr noundef %0, ptr noundef %22) #4
  br label %24

24:                                               ; preds = %1, %9, %17, %21, %13, %5
  %.4 = phi i8 [ %23, %21 ], [ 1, %17 ], [ 1, %13 ], [ 1, %9 ], [ 1, %5 ], [ 1, %1 ]
  ret i8 %.4
}